; Function Attrs: mustprogress nofree norecurse nosync nounwind sspstrong willreturn memory(read, inaccessiblemem: none) uwtable
define hidden i64 @rb_FL_TEST(i64 noundef %0, i64 noundef %1) local_unnamed_addr #4 {
  %3 = icmp eq i64 %0, 0
  %4 = and i64 %0, 7
  %5 = icmp ne i64 %4, 0
  %6 = or i1 %3, %5
  br i1 %6, label %RB_FL_TEST.exit, label %RB_FL_ABLE.exit.i

RB_FL_ABLE.exit.i:                                ; preds = %2
  %7 = inttoptr i64 %0 to ptr
  %8 = load i64, ptr %7, align 8, !tbaa !11
  %9 = and i64 %8, 31
  %.not.i = icmp eq i64 %9, 27
  %10 = and i64 %8, %1
  %spec.select.i = select i1 %.not.i, i64 0, i64 %10
  br label %RB_FL_TEST.exit

RB_FL_TEST.exit:                                  ; preds = %2, %RB_FL_ABLE.exit.i
  %.0.i = phi i64 [ 0, %2 ], [ %spec.select.i, %RB_FL_ABLE.exit.i ]
  ret i64 %.0.i
}